target datalayout = "e-m:e-p270:32:32-p271:32:32-p272:64:64-i64:64-i128:128-f80:128-n8:16:32:64-S128"
target triple = "x86_64-pc-linux-gnu"

%"struct.std::_Rb_tree_header" = type { %"struct.std::_Rb_tree_node_base", i64 }
%"struct.std::_Rb_tree_node_base" = type { i32, ptr, ptr, ptr }
%"class.pkpy::Compiler" = type { %"struct.pkpy::Lexer", %"class.pkpy::stack_no_copy.3", ptr, i8, i32, %"class.std::vector" }
%"struct.pkpy::Lexer" = type <{ ptr, %"class.std::shared_ptr", ptr, ptr, i32, [4 x i8], %"class.std::vector", %"class.pkpy::stack_no_copy", i32, [4 x i8] }>
%"class.std::shared_ptr" = type { %"class.std::__shared_ptr" }
%"class.std::__shared_ptr" = type { ptr, %"class.std::__shared_count" }
%"class.std::__shared_count" = type { ptr }
%"class.pkpy::stack_no_copy" = type { %"class.pkpy::stack" }
%"class.pkpy::stack" = type { %"class.pkpy::small_vector_2" }
%"class.pkpy::small_vector_2" = type { %"class.pkpy::small_vector" }
%"class.pkpy::small_vector" = type { [32 x i8], ptr, ptr, ptr }
%"class.pkpy::stack_no_copy.3" = type { %"class.pkpy::stack.4" }
%"class.pkpy::stack.4" = type { %"class.std::vector.5" }
%"class.std::vector.5" = type { %"struct.std::_Vector_base.6" }
%"struct.std::_Vector_base.6" = type { %"struct.std::_Vector_base<pkpy::CodeEmitContext, std::allocator<pkpy::CodeEmitContext>>::_Vector_impl" }
%"struct.std::_Vector_base<pkpy::CodeEmitContext, std::allocator<pkpy::CodeEmitContext>>::_Vector_impl" = type { %"struct.std::_Vector_base<pkpy::CodeEmitContext, std::allocator<pkpy::CodeEmitContext>>::_Vector_impl_data" }
%"struct.std::_Vector_base<pkpy::CodeEmitContext, std::allocator<pkpy::CodeEmitContext>>::_Vector_impl_data" = type { ptr, ptr, ptr }
%"class.std::vector" = type { %"struct.std::_Vector_base" }
%"struct.std::_Vector_base" = type { %"struct.std::_Vector_base<pkpy::Token, std::allocator<pkpy::Token>>::_Vector_impl" }
%"struct.std::_Vector_base<pkpy::Token, std::allocator<pkpy::Token>>::_Vector_impl" = type { %"struct.std::_Vector_base<pkpy::Token, std::allocator<pkpy::Token>>::_Vector_impl_data" }
%"struct.std::_Vector_base<pkpy::Token, std::allocator<pkpy::Token>>::_Vector_impl_data" = type { ptr, ptr, ptr }
%"class.std::shared_ptr.10" = type { %"class.std::__shared_ptr.11" }
%"class.std::__shared_ptr.11" = type { ptr, %"class.std::__shared_count" }
%"struct.pkpy::CodeEmitContext" = type { ptr, %"class.std::shared_ptr.54", %"class.std::shared_ptr.10", %"class.pkpy::stack_no_copy.57", i32, %"class.std::set", i32, i8, i32, %"class.std::map.71", %"class.std::map.79" }
%"class.std::shared_ptr.54" = type { %"class.std::__shared_ptr.55" }
%"class.std::__shared_ptr.55" = type { ptr, %"class.std::__shared_count" }
%"class.pkpy::stack_no_copy.57" = type { %"class.pkpy::stack.58" }
%"class.pkpy::stack.58" = type { %"class.std::vector.59" }
%"class.std::vector.59" = type { %"struct.std::_Vector_base.60" }
%"struct.std::_Vector_base.60" = type { %"struct.std::_Vector_base<pkpy::unique_ptr_128<pkpy::Expr>, std::allocator<pkpy::unique_ptr_128<pkpy::Expr>>>::_Vector_impl" }
%"struct.std::_Vector_base<pkpy::unique_ptr_128<pkpy::Expr>, std::allocator<pkpy::unique_ptr_128<pkpy::Expr>>>::_Vector_impl" = type { %"struct.std::_Vector_base<pkpy::unique_ptr_128<pkpy::Expr>, std::allocator<pkpy::unique_ptr_128<pkpy::Expr>>>::_Vector_impl_data" }
%"struct.std::_Vector_base<pkpy::unique_ptr_128<pkpy::Expr>, std::allocator<pkpy::unique_ptr_128<pkpy::Expr>>>::_Vector_impl_data" = type { ptr, ptr, ptr }
%"class.std::set" = type { %"class.std::_Rb_tree.64" }
%"class.std::_Rb_tree.64" = type { %"struct.std::_Rb_tree<pkpy::Str, pkpy::Str, std::_Identity<pkpy::Str>, std::less<pkpy::Str>>::_Rb_tree_impl" }
%"struct.std::_Rb_tree<pkpy::Str, pkpy::Str, std::_Identity<pkpy::Str>, std::less<pkpy::Str>>::_Rb_tree_impl" = type { %"struct.std::_Rb_tree_key_compare.68", %"struct.std::_Rb_tree_header" }
%"struct.std::_Rb_tree_key_compare.68" = type { %"struct.std::less.69" }
%"struct.std::less.69" = type { i8 }
%"class.std::map.71" = type { %"class.std::_Rb_tree.72" }
%"class.std::_Rb_tree.72" = type { %"struct.std::_Rb_tree<void *, std::pair<void *const, int>, std::_Select1st<std::pair<void *const, int>>, std::less<void *>>::_Rb_tree_impl" }
%"struct.std::_Rb_tree<void *, std::pair<void *const, int>, std::_Select1st<std::pair<void *const, int>>, std::less<void *>>::_Rb_tree_impl" = type { %"struct.std::_Rb_tree_key_compare.76", %"struct.std::_Rb_tree_header" }
%"struct.std::_Rb_tree_key_compare.76" = type { %"struct.std::less.77" }
%"struct.std::less.77" = type { i8 }
%"class.std::map.79" = type { %"class.std::_Rb_tree.80" }
%"class.std::_Rb_tree.80" = type { %"struct.std::_Rb_tree<std::__cxx11::basic_string<char>, std::pair<const std::__cxx11::basic_string<char>, int>, std::_Select1st<std::pair<const std::__cxx11::basic_string<char>, int>>, std::less<void>>::_Rb_tree_impl" }
%"struct.std::_Rb_tree<std::__cxx11::basic_string<char>, std::pair<const std::__cxx11::basic_string<char>, int>, std::_Select1st<std::pair<const std::__cxx11::basic_string<char>, int>>, std::less<void>>::_Rb_tree_impl" = type { %"struct.std::_Rb_tree_key_compare.84", %"struct.std::_Rb_tree_header" }
%"struct.std::_Rb_tree_key_compare.84" = type { %"struct.std::less.85" }
%"struct.std::less.85" = type { i8 }
%"class.pkpy::unique_ptr_128" = type { ptr }
%"class.pkpy::small_vector.95" = type { [32 x i8], ptr, ptr, ptr }
%"struct.pkpy::Expr" = type <{ ptr, i32, [4 x i8] }>
%"class.__gnu_cxx::__normal_iterator.134" = type { ptr }
%"class.std::reverse_iterator" = type { ptr }

; Function Attrs: mustprogress nounwind uwtable
define linkonce_odr void @_ZN9__gnu_cxx17__normal_iteratorIPN4pkpy15CodeEmitContextESt6vectorIS2_SaIS2_EEEC2ERKS3_(ptr noundef nonnull align 8 dereferenceable(8) %0, ptr noundef nonnull align 8 dereferenceable(8) %1) unnamed_addr #5 comdat align 2 {
  %3 = alloca ptr, align 8
  %4 = alloca ptr, align 8
  store ptr %0, ptr %3, align 8
  store ptr %1, ptr %4, align 8
  %5 = load ptr, ptr %3, align 8
  %6 = getelementptr inbounds %"class.__gnu_cxx::__normal_iterator.134", ptr %5, i32 0, i32 0
  %7 = load ptr, ptr %4, align 8
  %8 = load ptr, ptr %7, align 8
  store ptr %8, ptr %6, align 8
  ret void
}

; Function Attrs: mustprogress nounwind uwtable
define linkonce_odr noundef nonnull align 8 dereferenceable(232) ptr @_ZNK9__gnu_cxx17__normal_iteratorIPN4pkpy15CodeEmitContextESt6vectorIS2_SaIS2_EEEdeEv(ptr noundef nonnull align 8 dereferenceable(8) %0) #5 comdat align 2 {
  %2 = alloca ptr, align 8
  store ptr %0, ptr %2, align 8
  %3 = load ptr, ptr %2, align 8
  %4 = getelementptr inbounds %"class.__gnu_cxx::__normal_iterator.134", ptr %3, i32 0, i32 0
  %5 = load ptr, ptr %4, align 8
  ret ptr %5
}

; Function Attrs: mustprogress nounwind uwtable
define linkonce_odr ptr @_ZNK9__gnu_cxx17__normal_iteratorIPN4pkpy15CodeEmitContextESt6vectorIS2_SaIS2_EEEmiEl(ptr noundef nonnull align 8 dereferenceable(8) %0, i64 noundef %1) #5 comdat align 2 {
  %3 = alloca %"class.__gnu_cxx::__normal_iterator.134", align 8
  %4 = alloca ptr, align 8
  %5 = alloca i64, align 8
  %6 = alloca ptr, align 8
  store ptr %0, ptr %4, align 8
  store i64 %1, ptr %5, align 8
  %7 = load ptr, ptr %4, align 8
  %8 = getelementptr inbounds %"class.__gnu_cxx::__normal_iterator.134", ptr %7, i32 0, i32 0
  %9 = load ptr, ptr %8, align 8
  %10 = load i64, ptr %5, align 8
  %11 = sub i64 0, %10
  %12 = getelementptr inbounds %"struct.pkpy::CodeEmitContext", ptr %9, i64 %11
  store ptr %12, ptr %6, align 8
  call void @_ZN9__gnu_cxx17__normal_iteratorIPN4pkpy15CodeEmitContextESt6vectorIS2_SaIS2_EEEC2ERKS3_(ptr noundef nonnull align 8 dereferenceable(8) %3, ptr noundef nonnull align 8 dereferenceable(8) %6) #3
  %13 = getelementptr inbounds %"class.__gnu_cxx::__normal_iterator.134", ptr %3, i32 0, i32 0
  %14 = load ptr, ptr %13, align 8
  ret ptr %14
}

; Function Attrs: mustprogress nounwind uwtable
define linkonce_odr ptr @_ZNSt6vectorIN4pkpy15CodeEmitContextESaIS1_EE3endEv(ptr noundef nonnull align 8 dereferenceable(24) %0) #5 comdat align 2 {
  %2 = alloca %"class.__gnu_cxx::__normal_iterator.134", align 8
  %3 = alloca ptr, align 8
  store ptr %0, ptr %3, align 8
  %4 = load ptr, ptr %3, align 8
  %5 = getelementptr inbounds %"struct.std::_Vector_base.6", ptr %4, i32 0, i32 0
  %6 = getelementptr inbounds %"struct.std::_Vector_base<pkpy::CodeEmitContext, std::allocator<pkpy::CodeEmitContext>>::_Vector_impl_data", ptr %5, i32 0, i32 1
  call void @_ZN9__gnu_cxx17__normal_iteratorIPN4pkpy15CodeEmitContextESt6vectorIS2_SaIS2_EEEC2ERKS3_(ptr noundef nonnull align 8 dereferenceable(8) %2, ptr noundef nonnull align 8 dereferenceable(8) %6) #3
  %7 = getelementptr inbounds %"class.__gnu_cxx::__normal_iterator.134", ptr %2, i32 0, i32 0
  %8 = load ptr, ptr %7, align 8
  ret ptr %8
}

; Function Attrs: mustprogress nounwind uwtable
define linkonce_odr noundef nonnull align 8 dereferenceable(232) ptr @_ZNSt6vectorIN4pkpy15CodeEmitContextESaIS1_EE4backEv(ptr noundef nonnull align 8 dereferenceable(24) %0) #5 comdat align 2 {
  %2 = alloca ptr, align 8
  %3 = alloca %"class.__gnu_cxx::__normal_iterator.134", align 8
  %4 = alloca %"class.__gnu_cxx::__normal_iterator.134", align 8
  store ptr %0, ptr %2, align 8
  %5 = load ptr, ptr %2, align 8
  %6 = call ptr @_ZNSt6vectorIN4pkpy15CodeEmitContextESaIS1_EE3endEv(ptr noundef nonnull align 8 dereferenceable(24) %5) #3
  %7 = getelementptr inbounds %"class.__gnu_cxx::__normal_iterator.134", ptr %4, i32 0, i32 0
  store ptr %6, ptr %7, align 8
  %8 = call ptr @_ZNK9__gnu_cxx17__normal_iteratorIPN4pkpy15CodeEmitContextESt6vectorIS2_SaIS2_EEEmiEl(ptr noundef nonnull align 8 dereferenceable(8) %4, i64 noundef 1) #3
  %9 = getelementptr inbounds %"class.__gnu_cxx::__normal_iterator.134", ptr %3, i32 0, i32 0
  store ptr %8, ptr %9, align 8
  %10 = call noundef nonnull align 8 dereferenceable(232) ptr @_ZNK9__gnu_cxx17__normal_iteratorIPN4pkpy15CodeEmitContextESt6vectorIS2_SaIS2_EEEdeEv(ptr noundef nonnull align 8 dereferenceable(8) %3) #3
  ret ptr %10
}

; Function Attrs: mustprogress nounwind uwtable
define linkonce_odr noundef ptr @_ZNKSt16reverse_iteratorIPKN4pkpy14unique_ptr_128INS0_4ExprEEEE4baseEv(ptr noundef nonnull align 8 dereferenceable(8) %0) #5 comdat align 2 {
  %2 = alloca ptr, align 8
  store ptr %0, ptr %2, align 8
  %3 = load ptr, ptr %2, align 8
  %4 = getelementptr inbounds %"class.std::reverse_iterator", ptr %3, i32 0, i32 0
  %5 = load ptr, ptr %4, align 8
  ret ptr %5
}

; Function Attrs: mustprogress nounwind uwtable
define linkonce_odr noundef nonnull align 8 dereferenceable(232) ptr @_ZN4pkpy5stackINS_15CodeEmitContextESt6vectorIS1_SaIS1_EEE3topEv(ptr noundef nonnull align 8 dereferenceable(24) %0) #5 comdat align 2 {
  %2 = alloca ptr, align 8
  store ptr %0, ptr %2, align 8
  %3 = load ptr, ptr %2, align 8
  %4 = getelementptr inbounds %"class.pkpy::stack.4", ptr %3, i32 0, i32 0
  %5 = call noundef nonnull align 8 dereferenceable(232) ptr @_ZNSt6vectorIN4pkpy15CodeEmitContextESaIS1_EE4backEv(ptr noundef nonnull align 8 dereferenceable(24) %4) #3
  ret ptr %5
}

; Function Attrs: mustprogress nounwind uwtable
define linkonce_odr noundef zeroext i1 @_ZSteqIPKN4pkpy14unique_ptr_128INS0_4ExprEEEEbRKSt16reverse_iteratorIT_ESA_(ptr noundef nonnull align 8 dereferenceable(8) %0, ptr noundef nonnull align 8 dereferenceable(8) %1) #5 comdat {
  %3 = alloca ptr, align 8
  %4 = alloca ptr, align 8
  store ptr %0, ptr %3, align 8
  store ptr %1, ptr %4, align 8
  %5 = load ptr, ptr %3, align 8
  %6 = call noundef ptr @_ZNKSt16reverse_iteratorIPKN4pkpy14unique_ptr_128INS0_4ExprEEEE4baseEv(ptr noundef nonnull align 8 dereferenceable(8) %5) #3
  %7 = load ptr, ptr %4, align 8
  %8 = call noundef ptr @_ZNKSt16reverse_iteratorIPKN4pkpy14unique_ptr_128INS0_4ExprEEEE4baseEv(ptr noundef nonnull align 8 dereferenceable(8) %7) #3
  %9 = icmp eq ptr %6, %8
  ret i1 %9
}

; Function Attrs: mustprogress nounwind uwtable
define linkonce_odr noundef ptr @_ZNK4pkpy12small_vectorINS_14unique_ptr_128INS_4ExprEEELm4EE5beginEv(ptr noundef nonnull align 8 dereferenceable(56) %0) #5 comdat align 2 {
  %2 = alloca ptr, align 8
  store ptr %0, ptr %2, align 8
  %3 = load ptr, ptr %2, align 8
  %4 = getelementptr inbounds %"class.pkpy::small_vector.95", ptr %3, i32 0, i32 1
  %5 = load ptr, ptr %4, align 8
  ret ptr %5
}

; Function Attrs: mustprogress nounwind uwtable
define linkonce_odr void @_ZNSt16reverse_iteratorIPKN4pkpy14unique_ptr_128INS0_4ExprEEEEC2ES5_(ptr noundef nonnull align 8 dereferenceable(8) %0, ptr noundef %1) unnamed_addr #5 comdat align 2 {
  %3 = alloca ptr, align 8
  %4 = alloca ptr, align 8
  store ptr %0, ptr %3, align 8
  store ptr %1, ptr %4, align 8
  %5 = load ptr, ptr %3, align 8
  %6 = getelementptr inbounds %"class.std::reverse_iterator", ptr %5, i32 0, i32 0
  %7 = load ptr, ptr %4, align 8
  store ptr %7, ptr %6, align 8
  ret void
}

; Function Attrs: mustprogress nounwind uwtable
define linkonce_odr noundef ptr @_ZNK4pkpy12small_vectorINS_14unique_ptr_128INS_4ExprEEELm4EE3endEv(ptr noundef nonnull align 8 dereferenceable(56) %0) #5 comdat align 2 {
  %2 = alloca ptr, align 8
  store ptr %0, ptr %2, align 8
  %3 = load ptr, ptr %2, align 8
  %4 = getelementptr inbounds %"class.pkpy::small_vector.95", ptr %3, i32 0, i32 2
  %5 = load ptr, ptr %4, align 8
  ret ptr %5
}

; Function Attrs: mustprogress nounwind uwtable
define linkonce_odr noundef nonnull align 8 dereferenceable(8) ptr @_ZNSt16reverse_iteratorIPKN4pkpy14unique_ptr_128INS0_4ExprEEEEppEv(ptr noundef nonnull align 8 dereferenceable(8) %0) #5 comdat align 2 {
  %2 = alloca ptr, align 8
  store ptr %0, ptr %2, align 8
  %3 = load ptr, ptr %2, align 8
  %4 = getelementptr inbounds %"class.std::reverse_iterator", ptr %3, i32 0, i32 0
  %5 = load ptr, ptr %4, align 8
  %6 = getelementptr inbounds %"class.pkpy::unique_ptr_128", ptr %5, i32 -1
  store ptr %6, ptr %4, align 8
  ret ptr %3
}

; Function Attrs: mustprogress uwtable
define linkonce_odr noundef ptr @_ZN4pkpy8Compiler3ctxEv(ptr noundef nonnull align 8 dereferenceable(200) %0) #4 comdat align 2 {
  %2 = alloca ptr, align 8
  store ptr %0, ptr %2, align 8
  %3 = load ptr, ptr %2, align 8
  %4 = getelementptr inbounds %"class.pkpy::Compiler", ptr %3, i32 0, i32 1
  %5 = call noundef nonnull align 8 dereferenceable(232) ptr @_ZN4pkpy5stackINS_15CodeEmitContextESt6vectorIS1_SaIS1_EEE3topEv(ptr noundef nonnull align 8 dereferenceable(24) %4)
  ret ptr %5
}

; Function Attrs: mustprogress nounwind uwtable
define linkonce_odr noundef ptr @_ZNK4pkpy14unique_ptr_128INS_4ExprEEptEv(ptr noundef nonnull align 8 dereferenceable(8) %0) #5 comdat align 2 {
  %2 = alloca ptr, align 8
  store ptr %0, ptr %2, align 8
  %3 = load ptr, ptr %2, align 8
  %4 = getelementptr inbounds %"class.pkpy::unique_ptr_128", ptr %3, i32 0, i32 0
  %5 = load ptr, ptr %4, align 8
  ret ptr %5
}

; Function Attrs: mustprogress nounwind uwtable
define linkonce_odr noundef nonnull align 8 dereferenceable(8) ptr @_ZNKSt16reverse_iteratorIPKN4pkpy14unique_ptr_128INS0_4ExprEEEEdeEv(ptr noundef nonnull align 8 dereferenceable(8) %0) #5 comdat align 2 {
  %2 = alloca ptr, align 8
  %3 = alloca ptr, align 8
  store ptr %0, ptr %2, align 8
  %4 = load ptr, ptr %2, align 8
  %5 = getelementptr inbounds %"class.std::reverse_iterator", ptr %4, i32 0, i32 0
  %6 = load ptr, ptr %5, align 8
  store ptr %6, ptr %3, align 8
  %7 = load ptr, ptr %3, align 8
  %8 = getelementptr inbounds %"class.pkpy::unique_ptr_128", ptr %7, i32 -1
  store ptr %8, ptr %3, align 8
  ret ptr %8
}

; Function Attrs: mustprogress uwtable
define linkonce_odr noundef zeroext i1 @_ZStneIPKN4pkpy14unique_ptr_128INS0_4ExprEEEEbRKSt16reverse_iteratorIT_ESA_(ptr noundef nonnull align 8 dereferenceable(8) %0, ptr noundef nonnull align 8 dereferenceable(8) %1) #4 comdat {
  %3 = alloca ptr, align 8
  %4 = alloca ptr, align 8
  store ptr %0, ptr %3, align 8
  store ptr %1, ptr %4, align 8
  %5 = load ptr, ptr %3, align 8
  %6 = load ptr, ptr %4, align 8
  %7 = call noundef zeroext i1 @_ZSteqIPKN4pkpy14unique_ptr_128INS0_4ExprEEEEbRKSt16reverse_iteratorIT_ESA_(ptr noundef nonnull align 8 dereferenceable(8) %5, ptr noundef nonnull align 8 dereferenceable(8) %6)
  %8 = xor i1 %7, true
  ret i1 %8
}

; Function Attrs: mustprogress nounwind uwtable
define linkonce_odr void @_ZNK4pkpy12small_vectorINS_14unique_ptr_128INS_4ExprEEELm4EE4rendEv(ptr dead_on_unwind noalias writable sret(%"class.std::reverse_iterator") align 8 %0, ptr noundef nonnull align 8 dereferenceable(56) %1) #5 comdat align 2 {
  %3 = alloca ptr, align 8
  %4 = alloca ptr, align 8
  store ptr %0, ptr %3, align 8
  store ptr %1, ptr %4, align 8
  %5 = load ptr, ptr %4, align 8
  %6 = call noundef ptr @_ZNK4pkpy12small_vectorINS_14unique_ptr_128INS_4ExprEEELm4EE5beginEv(ptr noundef nonnull align 8 dereferenceable(56) %5)
  call void @_ZNSt16reverse_iteratorIPKN4pkpy14unique_ptr_128INS0_4ExprEEEEC2ES5_(ptr noundef nonnull align 8 dereferenceable(8) %0, ptr noundef %6) #3
  ret void
}

; Function Attrs: mustprogress nounwind uwtable
define linkonce_odr void @_ZNK4pkpy12small_vectorINS_14unique_ptr_128INS_4ExprEEELm4EE6rbeginEv(ptr dead_on_unwind noalias writable sret(%"class.std::reverse_iterator") align 8 %0, ptr noundef nonnull align 8 dereferenceable(56) %1) #5 comdat align 2 {
  %3 = alloca ptr, align 8
  %4 = alloca ptr, align 8
  store ptr %0, ptr %3, align 8
  store ptr %1, ptr %4, align 8
  %5 = load ptr, ptr %4, align 8
  %6 = call noundef ptr @_ZNK4pkpy12small_vectorINS_14unique_ptr_128INS_4ExprEEELm4EE3endEv(ptr noundef nonnull align 8 dereferenceable(56) %5)
  call void @_ZNSt16reverse_iteratorIPKN4pkpy14unique_ptr_128INS0_4ExprEEEEC2ES5_(ptr noundef nonnull align 8 dereferenceable(8) %0, ptr noundef %6) #3
  ret void
}

; Function Attrs: mustprogress uwtable
define void @_ZN4pkpy8Compiler15_add_decoratorsERKNS_12small_vectorINS_14unique_ptr_128INS_4ExprEEELm4EEE(ptr noundef nonnull align 8 dereferenceable(200) %0, ptr noundef nonnull align 8 dereferenceable(56) %1) #4 align 2 {
  %3 = alloca ptr, align 8
  %4 = alloca ptr, align 8
  %5 = alloca %"class.std::reverse_iterator", align 8
  %6 = alloca %"class.std::reverse_iterator", align 8
  store ptr %0, ptr %3, align 8
  store ptr %1, ptr %4, align 8
  %7 = load ptr, ptr %3, align 8
  %8 = load ptr, ptr %4, align 8
  call void @_ZNK4pkpy12small_vectorINS_14unique_ptr_128INS_4ExprEEELm4EE6rbeginEv(ptr dead_on_unwind writable sret(%"class.std::reverse_iterator") align 8 %5, ptr noundef nonnull align 8 dereferenceable(56) %8)
  br label %9

9:                                                ; preds = %35, %2
  %10 = load ptr, ptr %4, align 8
  call void @_ZNK4pkpy12small_vectorINS_14unique_ptr_128INS_4ExprEEELm4EE4rendEv(ptr dead_on_unwind writable sret(%"class.std::reverse_iterator") align 8 %6, ptr noundef nonnull align 8 dereferenceable(56) %10)
  %11 = call noundef zeroext i1 @_ZStneIPKN4pkpy14unique_ptr_128INS0_4ExprEEEEbRKSt16reverse_iteratorIT_ESA_(ptr noundef nonnull align 8 dereferenceable(8) %5, ptr noundef nonnull align 8 dereferenceable(8) %6)
  br i1 %11, label %12, label %37

12:                                               ; preds = %9
  %13 = call noundef nonnull align 8 dereferenceable(8) ptr @_ZNKSt16reverse_iteratorIPKN4pkpy14unique_ptr_128INS0_4ExprEEEEdeEv(ptr noundef nonnull align 8 dereferenceable(8) %5)
  %14 = call noundef ptr @_ZNK4pkpy14unique_ptr_128INS_4ExprEEptEv(ptr noundef nonnull align 8 dereferenceable(8) %13)
  %15 = call noundef ptr @_ZN4pkpy8Compiler3ctxEv(ptr noundef nonnull align 8 dereferenceable(200) %7)
  %16 = load ptr, ptr %14, align 8
  %17 = getelementptr inbounds ptr, ptr %16, i64 2
  %18 = load ptr, ptr %17, align 8
  call void %18(ptr noundef nonnull align 8 dereferenceable(12) %14, ptr noundef %15)
  %19 = call noundef ptr @_ZN4pkpy8Compiler3ctxEv(ptr noundef nonnull align 8 dereferenceable(200) %7)
  %20 = call noundef nonnull align 8 dereferenceable(8) ptr @_ZNKSt16reverse_iteratorIPKN4pkpy14unique_ptr_128INS0_4ExprEEEEdeEv(ptr noundef nonnull align 8 dereferenceable(8) %5)
  %21 = call noundef ptr @_ZNK4pkpy14unique_ptr_128INS_4ExprEEptEv(ptr noundef nonnull align 8 dereferenceable(8) %20)
  %22 = getelementptr inbounds %"struct.pkpy::Expr", ptr %21, i32 0, i32 1
  %23 = load i32, ptr %22, align 8
  %24 = call noundef i32 @_ZN4pkpy15CodeEmitContext5emit_ENS_6OpcodeEtib(ptr noundef nonnull align 8 dereferenceable(232) %19, i8 noundef zeroext 3, i16 noundef zeroext 0, i32 noundef %23, i1 noundef zeroext false)
  %25 = call noundef ptr @_ZN4pkpy8Compiler3ctxEv(ptr noundef nonnull align 8 dereferenceable(200) %7)
  %26 = call noundef i32 @_ZN4pkpy15CodeEmitContext5emit_ENS_6OpcodeEtib(ptr noundef nonnull align 8 dereferenceable(232) %25, i8 noundef zeroext 13, i16 noundef zeroext 0, i32 noundef -1, i1 noundef zeroext false)
  %27 = call noundef ptr @_ZN4pkpy8Compiler3ctxEv(ptr noundef nonnull align 8 dereferenceable(200) %7)
  %28 = call noundef i32 @_ZN4pkpy15CodeEmitContext5emit_ENS_6OpcodeEtib(ptr noundef nonnull align 8 dereferenceable(232) %27, i8 noundef zeroext 3, i16 noundef zeroext 0, i32 noundef -1, i1 noundef zeroext false)
  %29 = call noundef ptr @_ZN4pkpy8Compiler3ctxEv(ptr noundef nonnull align 8 dereferenceable(200) %7)
  %30 = call noundef nonnull align 8 dereferenceable(8) ptr @_ZNKSt16reverse_iteratorIPKN4pkpy14unique_ptr_128INS0_4ExprEEEEdeEv(ptr noundef nonnull align 8 dereferenceable(8) %5)
  %31 = call noundef ptr @_ZNK4pkpy14unique_ptr_128INS_4ExprEEptEv(ptr noundef nonnull align 8 dereferenceable(8) %30)
  %32 = getelementptr inbounds %"struct.pkpy::Expr", ptr %31, i32 0, i32 1
  %33 = load i32, ptr %32, align 8
  %34 = call noundef i32 @_ZN4pkpy15CodeEmitContext5emit_ENS_6OpcodeEtib(ptr noundef nonnull align 8 dereferenceable(232) %29, i8 noundef zeroext 81, i16 noundef zeroext 1, i32 noundef %33, i1 noundef zeroext false)
  br label %35

35:                                               ; preds = %12
  %36 = call noundef nonnull align 8 dereferenceable(8) ptr @_ZNSt16reverse_iteratorIPKN4pkpy14unique_ptr_128INS0_4ExprEEEEppEv(ptr noundef nonnull align 8 dereferenceable(8) %5)
  br label %9, !llvm.loop !34

37:                                               ; preds = %9
  ret void
}