; Function Attrs: mustprogress uwtable
define void @_ZN4pkpy8Compiler15_add_decoratorsERKNS_12small_vectorINS_14unique_ptr_128INS_4ExprEEELm4EEE(ptr noundef nonnull readonly align 8 captures(none) dereferenceable(200) %0, ptr noundef nonnull readonly align 8 captures(none) dereferenceable(56) %1) local_unnamed_addr #5 align 2 {
  %3 = getelementptr inbounds nuw i8, ptr %1, i64 40
  %4 = load ptr, ptr %3, align 8, !noalias !313
  %5 = getelementptr inbounds nuw i8, ptr %1, i64 32
  %6 = load ptr, ptr %5, align 8, !noalias !316
  %.not8 = icmp eq ptr %4, %6
  br i1 %.not8, label %._crit_edge, label %.lr.ph

.lr.ph:                                           ; preds = %2
  %7 = getelementptr inbounds nuw i8, ptr %0, i64 144
  br label %8

8:                                                ; preds = %.lr.ph, %8
  %.sroa.03.09 = phi ptr [ %4, %.lr.ph ], [ %9, %8 ]
  %9 = getelementptr inbounds i8, ptr %.sroa.03.09, i64 -8
  %10 = load ptr, ptr %9, align 8
  %11 = load ptr, ptr %7, align 8
  %12 = getelementptr inbounds i8, ptr %11, i64 -232
  %13 = load ptr, ptr %10, align 8
  %14 = getelementptr inbounds nuw i8, ptr %13, i64 16
  %15 = load ptr, ptr %14, align 8
  tail call void %15(ptr noundef nonnull align 8 dereferenceable(12) %10, ptr noundef nonnull %12)
  %16 = load ptr, ptr %7, align 8
  %17 = getelementptr inbounds i8, ptr %16, i64 -232
  %18 = load ptr, ptr %9, align 8
  %19 = getelementptr inbounds nuw i8, ptr %18, i64 8
  %20 = load i32, ptr %19, align 8
  %21 = tail call noundef i32 @_ZN4pkpy15CodeEmitContext5emit_ENS_6OpcodeEtib(ptr noundef nonnull align 8 dereferenceable(232) %17, i8 noundef zeroext 3, i16 noundef zeroext 0, i32 noundef %20, i1 noundef zeroext false)
  %22 = load ptr, ptr %7, align 8
  %23 = getelementptr inbounds i8, ptr %22, i64 -232
  %24 = tail call noundef i32 @_ZN4pkpy15CodeEmitContext5emit_ENS_6OpcodeEtib(ptr noundef nonnull align 8 dereferenceable(232) %23, i8 noundef zeroext 13, i16 noundef zeroext 0, i32 noundef -1, i1 noundef zeroext false)
  %25 = load ptr, ptr %7, align 8
  %26 = getelementptr inbounds i8, ptr %25, i64 -232
  %27 = tail call noundef i32 @_ZN4pkpy15CodeEmitContext5emit_ENS_6OpcodeEtib(ptr noundef nonnull align 8 dereferenceable(232) %26, i8 noundef zeroext 3, i16 noundef zeroext 0, i32 noundef -1, i1 noundef zeroext false)
  %28 = load ptr, ptr %7, align 8
  %29 = getelementptr inbounds i8, ptr %28, i64 -232
  %30 = load ptr, ptr %9, align 8
  %31 = getelementptr inbounds nuw i8, ptr %30, i64 8
  %32 = load i32, ptr %31, align 8
  %33 = tail call noundef i32 @_ZN4pkpy15CodeEmitContext5emit_ENS_6OpcodeEtib(ptr noundef nonnull align 8 dereferenceable(232) %29, i8 noundef zeroext 81, i16 noundef zeroext 1, i32 noundef %32, i1 noundef zeroext false)
  %34 = load ptr, ptr %5, align 8, !noalias !316
  %.not = icmp eq ptr %9, %34
  br i1 %.not, label %._crit_edge, label %8, !llvm.loop !319

._crit_edge:                                      ; preds = %8, %2
  ret void
}